
test.o:     file format elf64-x86-64


Disassembly of section .text:

0000000000000000 <_Z1fidf>:
   0:	55                   	push   %rbp
   1:	48 89 e5             	mov    %rsp,%rbp
   4:	89 7d ec             	mov    %edi,-0x14(%rbp)
   7:	f2 0f 11 45 e0       	movsd  %xmm0,-0x20(%rbp)
   c:	f3 0f 11 4d e8       	movss  %xmm1,-0x18(%rbp)
  11:	8b 45 ec             	mov    -0x14(%rbp),%eax
  14:	89 45 fc             	mov    %eax,-0x4(%rbp)
  17:	f2 0f 10 45 e0       	movsd  -0x20(%rbp),%xmm0
  1c:	f2 0f 2c c0          	cvttsd2si %xmm0,%eax
  20:	89 45 fc             	mov    %eax,-0x4(%rbp)
  23:	f3 0f 10 45 e8       	movss  -0x18(%rbp),%xmm0
  28:	f3 0f 2c c0          	cvttss2si %xmm0,%eax
  2c:	89 45 fc             	mov    %eax,-0x4(%rbp)
  2f:	5d                   	pop    %rbp
  30:	c3                   	retq   

0000000000000031 <_Z1mv>:
  31:	55                   	push   %rbp
  32:	48 89 e5             	mov    %rsp,%rbp
  35:	48 83 ec 18          	sub    $0x18,%rsp
  39:	c7 45 f0 09 00 00 00 	movl   $0x9,-0x10(%rbp)
  40:	48 b8 00 00 00 00 00 	movabs $0x4033000000000000,%rax
  47:	00 33 40 
  4a:	48 89 45 f8          	mov    %rax,-0x8(%rbp)
  4e:	8b 05 00 00 00 00    	mov    0x0(%rip),%eax        # 54 <_Z1mv+0x23>
  54:	89 45 f4             	mov    %eax,-0xc(%rbp)
  57:	8b 55 f4             	mov    -0xc(%rbp),%edx
  5a:	48 8b 45 f8          	mov    -0x8(%rbp),%rax
  5e:	8b 4d f0             	mov    -0x10(%rbp),%ecx
  61:	89 55 e8             	mov    %edx,-0x18(%rbp)
  64:	f3 0f 10 4d e8       	movss  -0x18(%rbp),%xmm1
  69:	48 89 45 e8          	mov    %rax,-0x18(%rbp)
  6d:	f2 0f 10 45 e8       	movsd  -0x18(%rbp),%xmm0
  72:	89 cf                	mov    %ecx,%edi
  74:	e8 00 00 00 00       	callq  79 <_Z1mv+0x48>
  79:	c9                   	leaveq 
  7a:	c3                   	retq   

000000000000007b <_Z2f2iiiiiiii>:
  7b:	55                   	push   %rbp
  7c:	48 89 e5             	mov    %rsp,%rbp
  7f:	89 7d ec             	mov    %edi,-0x14(%rbp)
  82:	89 75 e8             	mov    %esi,-0x18(%rbp)
  85:	89 55 e4             	mov    %edx,-0x1c(%rbp)
  88:	89 4d e0             	mov    %ecx,-0x20(%rbp)
  8b:	44 89 45 dc          	mov    %r8d,-0x24(%rbp)
  8f:	44 89 4d d8          	mov    %r9d,-0x28(%rbp)
  93:	8b 45 ec             	mov    -0x14(%rbp),%eax
  96:	89 45 f4             	mov    %eax,-0xc(%rbp)
  99:	8b 45 10             	mov    0x10(%rbp),%eax
  9c:	89 45 f8             	mov    %eax,-0x8(%rbp)
  9f:	8b 45 18             	mov    0x18(%rbp),%eax
  a2:	89 45 fc             	mov    %eax,-0x4(%rbp)
  a5:	5d                   	pop    %rbp
  a6:	c3                   	retq   

00000000000000a7 <_Z2mmv>:
  a7:	55                   	push   %rbp
  a8:	48 89 e5             	mov    %rsp,%rbp
  ab:	48 83 ec 10          	sub    $0x10,%rsp
  af:	c7 44 24 08 08 00 00 	movl   $0x8,0x8(%rsp)
  b6:	00 
  b7:	c7 04 24 07 00 00 00 	movl   $0x7,(%rsp)
  be:	41 b9 06 00 00 00    	mov    $0x6,%r9d
  c4:	41 b8 05 00 00 00    	mov    $0x5,%r8d
  ca:	b9 04 00 00 00       	mov    $0x4,%ecx
  cf:	ba 03 00 00 00       	mov    $0x3,%edx
  d4:	be 02 00 00 00       	mov    $0x2,%esi
  d9:	bf 01 00 00 00       	mov    $0x1,%edi
  de:	e8 00 00 00 00       	callq  e3 <_Z2mmv+0x3c>
  e3:	c9                   	leaveq 
  e4:	c3                   	retq   

00000000000000e5 <_Z2f3fffffffffffff>:
  e5:	55                   	push   %rbp
  e6:	48 89 e5             	mov    %rsp,%rbp
  e9:	f3 0f 11 45 ec       	movss  %xmm0,-0x14(%rbp)
  ee:	f3 0f 11 4d e8       	movss  %xmm1,-0x18(%rbp)
  f3:	f3 0f 11 55 e4       	movss  %xmm2,-0x1c(%rbp)
  f8:	f3 0f 11 5d e0       	movss  %xmm3,-0x20(%rbp)
  fd:	f3 0f 11 65 dc       	movss  %xmm4,-0x24(%rbp)
 102:	f3 0f 11 6d d8       	movss  %xmm5,-0x28(%rbp)
 107:	f3 0f 11 75 d4       	movss  %xmm6,-0x2c(%rbp)
 10c:	f3 0f 11 7d d0       	movss  %xmm7,-0x30(%rbp)
 111:	8b 45 10             	mov    0x10(%rbp),%eax
 114:	89 45 f8             	mov    %eax,-0x8(%rbp)
 117:	8b 45 18             	mov    0x18(%rbp),%eax
 11a:	89 45 fc             	mov    %eax,-0x4(%rbp)
 11d:	5d                   	pop    %rbp
 11e:	c3                   	retq   

000000000000011f <_Z3mmmv>:
 11f:	55                   	push   %rbp
 120:	48 89 e5             	mov    %rsp,%rbp
 123:	48 83 ec 28          	sub    $0x28,%rsp
 127:	8b 05 00 00 00 00    	mov    0x0(%rip),%eax        # 12d <_Z3mmmv+0xe>
 12d:	89 44 24 20          	mov    %eax,0x20(%rsp)
 131:	8b 05 00 00 00 00    	mov    0x0(%rip),%eax        # 137 <_Z3mmmv+0x18>
 137:	89 44 24 18          	mov    %eax,0x18(%rsp)
 13b:	8b 05 00 00 00 00    	mov    0x0(%rip),%eax        # 141 <_Z3mmmv+0x22>
 141:	89 44 24 10          	mov    %eax,0x10(%rsp)
 145:	8b 05 00 00 00 00    	mov    0x0(%rip),%eax        # 14b <_Z3mmmv+0x2c>
 14b:	89 44 24 08          	mov    %eax,0x8(%rsp)
 14f:	8b 05 00 00 00 00    	mov    0x0(%rip),%eax        # 155 <_Z3mmmv+0x36>
 155:	89 04 24             	mov    %eax,(%rsp)
 158:	f3 0f 10 3d 00 00 00 	movss  0x0(%rip),%xmm7        # 160 <_Z3mmmv+0x41>
 15f:	00 
 160:	f3 0f 10 35 00 00 00 	movss  0x0(%rip),%xmm6        # 168 <_Z3mmmv+0x49>
 167:	00 
 168:	f3 0f 10 2d 00 00 00 	movss  0x0(%rip),%xmm5        # 170 <_Z3mmmv+0x51>
 16f:	00 
 170:	f3 0f 10 25 00 00 00 	movss  0x0(%rip),%xmm4        # 178 <_Z3mmmv+0x59>
 177:	00 
 178:	f3 0f 10 1d 00 00 00 	movss  0x0(%rip),%xmm3        # 180 <_Z3mmmv+0x61>
 17f:	00 
 180:	f3 0f 10 15 00 00 00 	movss  0x0(%rip),%xmm2        # 188 <_Z3mmmv+0x69>
 187:	00 
 188:	f3 0f 10 0d 00 00 00 	movss  0x0(%rip),%xmm1        # 190 <_Z3mmmv+0x71>
 18f:	00 
 190:	f3 0f 10 05 00 00 00 	movss  0x0(%rip),%xmm0        # 198 <_Z3mmmv+0x79>
 197:	00 
 198:	e8 00 00 00 00       	callq  19d <_Z3mmmv+0x7e>
 19d:	c9                   	leaveq 
 19e:	c3                   	retq   
